(dp0
S'a'
p1
I127
sS'third'
p2
I2048383
sS'GRAVITY'
p3
F9.81
sS'HEIGHT'
p4
I20
sS'second'
p5
I16129
sS'POTENTIAL'
p6
F15696.000000000002
sS'MASS'
p7
I80
sS'USER'
p8
(dp9
S'NAME'
p10
S'Marko'
p11
sS'SITE'
p12
S'https://mstamenk.github.io'
p13
ssS'first'
p14
I127
s.